target datalayout = "e-m:e-p270:32:32-p271:32:32-p272:64:64-i64:64-i128:128-f80:128-n8:16:32:64-S128"
target triple = "x86_64-pc-linux-gnu"

%struct.ossl_dispatch_st = type { i32, ptr }

@c_gettable_params = internal global ptr null, align 8
@c_get_params = internal global ptr null, align 8

; Function Attrs: inlinehint nounwind uwtable
define internal ptr @OSSL_FUNC_core_get_libctx(ptr noundef %0) #3 {
  %2 = alloca ptr, align 8
  store ptr %0, ptr %2, align 8, !tbaa !8
  %3 = load ptr, ptr %2, align 8, !tbaa !8
  %4 = getelementptr inbounds nuw %struct.ossl_dispatch_st, ptr %3, i32 0, i32 1
  %5 = load ptr, ptr %4, align 8, !tbaa !20
  ret ptr %5
}

; Function Attrs: inlinehint nounwind uwtable
define internal ptr @OSSL_FUNC_core_get_params(ptr noundef %0) #3 {
  %2 = alloca ptr, align 8
  store ptr %0, ptr %2, align 8, !tbaa !8
  %3 = load ptr, ptr %2, align 8, !tbaa !8
  %4 = getelementptr inbounds nuw %struct.ossl_dispatch_st, ptr %3, i32 0, i32 1
  %5 = load ptr, ptr %4, align 8, !tbaa !20
  ret ptr %5
}

; Function Attrs: inlinehint nounwind uwtable
define internal ptr @OSSL_FUNC_core_gettable_params(ptr noundef %0) #3 {
  %2 = alloca ptr, align 8
  store ptr %0, ptr %2, align 8, !tbaa !8
  %3 = load ptr, ptr %2, align 8, !tbaa !8
  %4 = getelementptr inbounds nuw %struct.ossl_dispatch_st, ptr %3, i32 0, i32 1
  %5 = load ptr, ptr %4, align 8, !tbaa !20
  ret ptr %5
}

; Function Attrs: nounwind uwtable
define i32 @ossl_base_provider_init(ptr noundef %0, ptr noundef %1, ptr noundef %2, ptr noundef %3) #0 {
  %5 = alloca i32, align 4
  %6 = alloca ptr, align 8
  %7 = alloca ptr, align 8
  %8 = alloca ptr, align 8
  %9 = alloca ptr, align 8
  %10 = alloca ptr, align 8
  %11 = alloca ptr, align 8
  %12 = alloca i32, align 4
  store ptr %0, ptr %6, align 8, !tbaa !3
  store ptr %1, ptr %7, align 8, !tbaa !8
  store ptr %2, ptr %8, align 8, !tbaa !10
  store ptr %3, ptr %9, align 8, !tbaa !12
  call void @llvm.lifetime.start.p0(i64 8, ptr %10) #4
  store ptr null, ptr %10, align 8, !tbaa !12
  call void @llvm.lifetime.start.p0(i64 8, ptr %11) #4
  %13 = load ptr, ptr %7, align 8, !tbaa !8
  %14 = call i32 @ossl_prov_bio_from_dispatch(ptr noundef %13)
  %15 = icmp ne i32 %14, 0
  br i1 %15, label %17, label %16

16:                                               ; preds = %4
  store i32 0, ptr %5, align 4
  store i32 1, ptr %12, align 4
  br label %72

17:                                               ; preds = %4
  br label %18

18:                                               ; preds = %38, %17
  %19 = load ptr, ptr %7, align 8, !tbaa !8
  %20 = getelementptr inbounds nuw %struct.ossl_dispatch_st, ptr %19, i32 0, i32 0
  %21 = load i32, ptr %20, align 8, !tbaa !13
  %22 = icmp ne i32 %21, 0
  br i1 %22, label %23, label %41

23:                                               ; preds = %18
  %24 = load ptr, ptr %7, align 8, !tbaa !8
  %25 = getelementptr inbounds nuw %struct.ossl_dispatch_st, ptr %24, i32 0, i32 0
  %26 = load i32, ptr %25, align 8, !tbaa !13
  switch i32 %26, label %36 [
    i32 1, label %27
    i32 2, label %30
    i32 4, label %33
  ]

27:                                               ; preds = %23
  %28 = load ptr, ptr %7, align 8, !tbaa !8
  %29 = call ptr @OSSL_FUNC_core_gettable_params(ptr noundef %28)
  store ptr %29, ptr @c_gettable_params, align 8, !tbaa !12
  br label %37

30:                                               ; preds = %23
  %31 = load ptr, ptr %7, align 8, !tbaa !8
  %32 = call ptr @OSSL_FUNC_core_get_params(ptr noundef %31)
  store ptr %32, ptr @c_get_params, align 8, !tbaa !12
  br label %37

33:                                               ; preds = %23
  %34 = load ptr, ptr %7, align 8, !tbaa !8
  %35 = call ptr @OSSL_FUNC_core_get_libctx(ptr noundef %34)
  store ptr %35, ptr %10, align 8, !tbaa !12
  br label %37

36:                                               ; preds = %23
  br label %37

37:                                               ; preds = %36, %33, %30, %27
  br label %38

38:                                               ; preds = %37
  %39 = load ptr, ptr %7, align 8, !tbaa !8
  %40 = getelementptr inbounds nuw %struct.ossl_dispatch_st, ptr %39, i32 1
  store ptr %40, ptr %7, align 8, !tbaa !8
  br label %18, !llvm.loop !16

41:                                               ; preds = %18
  %42 = load ptr, ptr %10, align 8, !tbaa !12
  %43 = icmp eq ptr %42, null
  br i1 %43, label %44, label %45

44:                                               ; preds = %41
  store i32 0, ptr %5, align 4
  store i32 1, ptr %12, align 4
  br label %72

45:                                               ; preds = %41
  %46 = call ptr @ossl_prov_ctx_new()
  %47 = load ptr, ptr %9, align 8, !tbaa !12
  store ptr %46, ptr %47, align 8, !tbaa !12
  %48 = icmp eq ptr %46, null
  br i1 %48, label %52, label %49

49:                                               ; preds = %45
  %50 = call ptr @ossl_bio_prov_init_bio_method()
  store ptr %50, ptr %11, align 8, !tbaa !18
  %51 = icmp eq ptr %50, null
  br i1 %51, label %52, label %56

52:                                               ; preds = %49, %45
  %53 = load ptr, ptr %9, align 8, !tbaa !12
  %54 = load ptr, ptr %53, align 8, !tbaa !12
  call void @ossl_prov_ctx_free(ptr noundef %54)
  %55 = load ptr, ptr %9, align 8, !tbaa !12
  store ptr null, ptr %55, align 8, !tbaa !12
  store i32 0, ptr %5, align 4
  store i32 1, ptr %12, align 4
  br label %72

56:                                               ; preds = %49
  %57 = load ptr, ptr %9, align 8, !tbaa !12
  %58 = load ptr, ptr %57, align 8, !tbaa !12
  %59 = load ptr, ptr %10, align 8, !tbaa !12
  %60 = load ptr, ptr %6, align 8, !tbaa !3
  %61 = call ptr %59(ptr noundef %60)
  call void @ossl_prov_ctx_set0_libctx(ptr noundef %58, ptr noundef %61)
  %62 = load ptr, ptr %9, align 8, !tbaa !12
  %63 = load ptr, ptr %62, align 8, !tbaa !12
  %64 = load ptr, ptr %6, align 8, !tbaa !3
  call void @ossl_prov_ctx_set0_handle(ptr noundef %63, ptr noundef %64)
  %65 = load ptr, ptr %9, align 8, !tbaa !12
  %66 = load ptr, ptr %65, align 8, !tbaa !12
  %67 = load ptr, ptr %11, align 8, !tbaa !18
  call void @ossl_prov_ctx_set0_core_bio_method(ptr noundef %66, ptr noundef %67)
  %68 = load ptr, ptr %9, align 8, !tbaa !12
  %69 = load ptr, ptr %68, align 8, !tbaa !12
  %70 = load ptr, ptr @c_get_params, align 8, !tbaa !12
  call void @ossl_prov_ctx_set0_core_get_params(ptr noundef %69, ptr noundef %70)
  %71 = load ptr, ptr %8, align 8, !tbaa !10
  store ptr @base_dispatch_table, ptr %71, align 8, !tbaa !8
  store i32 1, ptr %5, align 4
  store i32 1, ptr %12, align 4
  br label %72

72:                                               ; preds = %56, %52, %44, %16
  call void @llvm.lifetime.end.p0(i64 8, ptr %11) #4
  call void @llvm.lifetime.end.p0(i64 8, ptr %10) #4
  %73 = load i32, ptr %5, align 4
  ret i32 %73
}