; Function Attrs: nounwind uwtable
define range(i32 0, 2) i32 @ossl_base_provider_init(ptr noundef %0, ptr noundef %1, ptr noundef writeonly captures(none) %2, ptr noundef captures(none) %3) local_unnamed_addr #0 {
  %5 = tail call i32 @ossl_prov_bio_from_dispatch(ptr noundef %1) #4
  %.not = icmp eq i32 %5, 0
  br i1 %.not, label %31, label %.preheader

.preheader:                                       ; preds = %4, %13
  %.021 = phi ptr [ %14, %13 ], [ %1, %4 ]
  %.020 = phi ptr [ %.1, %13 ], [ null, %4 ]
  %6 = load i32, ptr %.021, align 8, !tbaa !3
  switch i32 %6, label %13 [
    i32 0, label %15
    i32 1, label %7
    i32 2, label %9
    i32 4, label %11
  ]

7:                                                ; preds = %.preheader
  %8 = getelementptr i8, ptr %.021, i64 8
  %.021.val = load ptr, ptr %8, align 8, !tbaa !9
  store ptr %.021.val, ptr @c_gettable_params, align 8, !tbaa !10
  br label %13

9:                                                ; preds = %.preheader
  %10 = getelementptr i8, ptr %.021, i64 8
  %.021.val25 = load ptr, ptr %10, align 8, !tbaa !9
  store ptr %.021.val25, ptr @c_get_params, align 8, !tbaa !10
  br label %13

11:                                               ; preds = %.preheader
  %12 = getelementptr i8, ptr %.021, i64 8
  %.021.val26 = load ptr, ptr %12, align 8, !tbaa !9
  br label %13

13:                                               ; preds = %.preheader, %7, %9, %11
  %.1 = phi ptr [ %.021.val26, %11 ], [ %.020, %9 ], [ %.020, %7 ], [ %.020, %.preheader ]
  %14 = getelementptr inbounds nuw i8, ptr %.021, i64 16
  br label %.preheader, !llvm.loop !11

15:                                               ; preds = %.preheader
  %16 = icmp eq ptr %.020, null
  br i1 %16, label %31, label %17

17:                                               ; preds = %15
  %18 = tail call ptr @ossl_prov_ctx_new() #4
  store ptr %18, ptr %3, align 8, !tbaa !10
  %19 = icmp eq ptr %18, null
  br i1 %19, label %23, label %20

20:                                               ; preds = %17
  %21 = tail call ptr @ossl_bio_prov_init_bio_method() #4
  %22 = icmp eq ptr %21, null
  %.pre = load ptr, ptr %3, align 8, !tbaa !10
  br i1 %22, label %23, label %25

23:                                               ; preds = %20, %17
  %24 = phi ptr [ %.pre, %20 ], [ null, %17 ]
  tail call void @ossl_prov_ctx_free(ptr noundef %24) #4
  store ptr null, ptr %3, align 8, !tbaa !10
  br label %31

25:                                               ; preds = %20
  %26 = tail call ptr %.020(ptr noundef %0) #4
  tail call void @ossl_prov_ctx_set0_libctx(ptr noundef %.pre, ptr noundef %26) #4
  %27 = load ptr, ptr %3, align 8, !tbaa !10
  tail call void @ossl_prov_ctx_set0_handle(ptr noundef %27, ptr noundef %0) #4
  %28 = load ptr, ptr %3, align 8, !tbaa !10
  tail call void @ossl_prov_ctx_set0_core_bio_method(ptr noundef %28, ptr noundef nonnull %21) #4
  %29 = load ptr, ptr %3, align 8, !tbaa !10
  %30 = load ptr, ptr @c_get_params, align 8, !tbaa !10
  tail call void @ossl_prov_ctx_set0_core_get_params(ptr noundef %29, ptr noundef %30) #4
  store ptr @base_dispatch_table, ptr %2, align 8, !tbaa !13
  br label %31

31:                                               ; preds = %15, %4, %25, %23
  %.0 = phi i32 [ 0, %23 ], [ 1, %25 ], [ 0, %4 ], [ 0, %15 ]
  ret i32 %.0
}